; ModuleID = 'source-C-CXX/26/1922.c'
source_filename = "source-C-CXX/26/1922.c"
target datalayout = "e-m:e-p270:32:32-p271:32:32-p272:64:64-i64:64-f80:128-n8:16:32:64-S128"
target triple = "x86_64-pc-linux-gnu"

@.str = private unnamed_addr constant [3 x i8] c"%d\00", align 1
@.str.1 = private unnamed_addr constant [12 x i8] c"%lf %lf %lf\00", align 1
@.str.2 = private unnamed_addr constant [29 x i8] c"x1=%.5f+%.5fi;x2=%.5f-%.5fi\0A\00", align 1
@.str.3 = private unnamed_addr constant [12 x i8] c"x1=x2=%.5f\0A\00", align 1
@.str.4 = private unnamed_addr constant [17 x i8] c"x1=%.5f;x2=%.5f\0A\00", align 1

; Function Attrs: nofree nounwind sspstrong uwtable
define dso_local i32 @main() local_unnamed_addr #0 {
  %1 = alloca double, align 8
  %2 = alloca double, align 8
  %3 = alloca double, align 8
  %4 = alloca i32, align 4
  %5 = bitcast double* %1 to i8*
  call void @llvm.lifetime.start.p0i8(i64 8, i8* nonnull %5) #4
  %6 = bitcast double* %2 to i8*
  call void @llvm.lifetime.start.p0i8(i64 8, i8* nonnull %6) #4
  %7 = bitcast double* %3 to i8*
  call void @llvm.lifetime.start.p0i8(i64 8, i8* nonnull %7) #4
  %8 = bitcast i32* %4 to i8*
  call void @llvm.lifetime.start.p0i8(i64 4, i8* nonnull %8) #4
  %9 = call i32 (i8*, ...) @__isoc99_scanf(i8* getelementptr inbounds ([3 x i8], [3 x i8]* @.str, i64 0, i64 0), i32* nonnull %4)
  %10 = load i32, i32* %4, align 4, !tbaa !5
  %11 = icmp slt i32 %10, 1
  br i1 %11, label %78, label %12

12:                                               ; preds = %0, %74
  %13 = phi i32 [ %75, %74 ], [ 1, %0 ]
  %14 = call i32 (i8*, ...) @__isoc99_scanf(i8* getelementptr inbounds ([12 x i8], [12 x i8]* @.str.1, i64 0, i64 0), double* nonnull %1, double* nonnull %2, double* nonnull %3)
  %15 = load double, double* %2, align 8, !tbaa !9
  %16 = fmul double %15, %15
  %17 = load double, double* %1, align 8, !tbaa !9
  %18 = fmul double %17, 4.000000e+00
  %19 = load double, double* %3, align 8, !tbaa !9
  %20 = fmul double %18, %19
  %21 = fsub double %16, %20
  %22 = call double @sqrt(double %21) #4
  %23 = fsub double %22, %15
  %24 = load double, double* %1, align 8, !tbaa !9
  %25 = fmul double %24, 2.000000e+00
  %26 = fdiv double %23, %25
  %27 = load double, double* %2, align 8, !tbaa !9
  %28 = fneg double %27
  %29 = fmul double %27, %27
  %30 = fmul double %24, 4.000000e+00
  %31 = load double, double* %3, align 8, !tbaa !9
  %32 = fmul double %30, %31
  %33 = fsub double %29, %32
  %34 = call double @sqrt(double %33) #4
  %35 = fsub double %28, %34
  %36 = load double, double* %1, align 8, !tbaa !9
  %37 = fmul double %36, 2.000000e+00
  %38 = fdiv double %35, %37
  %39 = load double, double* %2, align 8, !tbaa !9
  %40 = fmul double %39, %39
  %41 = fmul double %36, 4.000000e+00
  %42 = load double, double* %3, align 8, !tbaa !9
  %43 = fmul double %41, %42
  %44 = fsub double %40, %43
  %45 = fcmp olt double %44, 0.000000e+00
  br i1 %45, label %46, label %68

46:                                               ; preds = %12
  %47 = fdiv double %39, %37
  %48 = fsub double 0.000000e+00, %47
  %49 = fneg double %44
  %50 = call double @sqrt(double %49) #4
  %51 = load double, double* %1, align 8, !tbaa !9
  %52 = fmul double %51, 2.000000e+00
  %53 = fdiv double %50, %52
  %54 = load double, double* %2, align 8, !tbaa !9
  %55 = fdiv double %54, %52
  %56 = fsub double 0.000000e+00, %55
  %57 = fmul double %54, %54
  %58 = fmul double %51, 4.000000e+00
  %59 = load double, double* %3, align 8, !tbaa !9
  %60 = fmul double %58, %59
  %61 = fsub double %57, %60
  %62 = fneg double %61
  %63 = call double @sqrt(double %62) #4
  %64 = load double, double* %1, align 8, !tbaa !9
  %65 = fmul double %64, 2.000000e+00
  %66 = fdiv double %63, %65
  %67 = call i32 (i8*, ...) @printf(i8* nonnull dereferenceable(1) getelementptr inbounds ([29 x i8], [29 x i8]* @.str.2, i64 0, i64 0), double %48, double %53, double %56, double %66)
  br label %74

68:                                               ; preds = %12
  %69 = fcmp oeq double %26, %38
  br i1 %69, label %70, label %72

70:                                               ; preds = %68
  %71 = call i32 (i8*, ...) @printf(i8* nonnull dereferenceable(1) getelementptr inbounds ([12 x i8], [12 x i8]* @.str.3, i64 0, i64 0), double %26)
  br label %74

72:                                               ; preds = %68
  %73 = call i32 (i8*, ...) @printf(i8* nonnull dereferenceable(1) getelementptr inbounds ([17 x i8], [17 x i8]* @.str.4, i64 0, i64 0), double %26, double %38)
  br label %74

74:                                               ; preds = %46, %72, %70
  %75 = add nuw nsw i32 %13, 1
  %76 = load i32, i32* %4, align 4, !tbaa !5
  %77 = icmp slt i32 %13, %76
  br i1 %77, label %12, label %78, !llvm.loop !11

78:                                               ; preds = %74, %0
  call void @llvm.lifetime.end.p0i8(i64 4, i8* nonnull %8) #4
  call void @llvm.lifetime.end.p0i8(i64 8, i8* nonnull %7) #4
  call void @llvm.lifetime.end.p0i8(i64 8, i8* nonnull %6) #4
  call void @llvm.lifetime.end.p0i8(i64 8, i8* nonnull %5) #4
  ret i32 0
}

; Function Attrs: argmemonly mustprogress nofree nosync nounwind willreturn
declare void @llvm.lifetime.start.p0i8(i64 immarg, i8* nocapture) #1

; Function Attrs: nofree nounwind
declare noundef i32 @__isoc99_scanf(i8* nocapture noundef readonly, ...) local_unnamed_addr #2

; Function Attrs: mustprogress nofree nounwind willreturn
declare double @sqrt(double) local_unnamed_addr #3

; Function Attrs: nofree nounwind
declare noundef i32 @printf(i8* nocapture noundef readonly, ...) local_unnamed_addr #2

; Function Attrs: argmemonly mustprogress nofree nosync nounwind willreturn
declare void @llvm.lifetime.end.p0i8(i64 immarg, i8* nocapture) #1


!llvm.module.flags = !{!0, !1, !2, !3}
!llvm.ident = !{!4}

!0 = !{i32 1, !"wchar_size", i32 4}
!1 = !{i32 7, !"PIC Level", i32 2}
!2 = !{i32 7, !"PIE Level", i32 2}
!3 = !{i32 7, !"uwtable", i32 1}
!4 = !{!"clang version 13.0.0"}
!5 = !{!6, !6, i64 0}
!6 = !{!"int", !7, i64 0}
!7 = !{!"omnipotent char", !8, i64 0}
!8 = !{!"Simple C/C++ TBAA"}
!9 = !{!10, !10, i64 0}
!10 = !{!"double", !7, i64 0}
!11 = distinct !{!11, !12}
!12 = !{!"llvm.loop.mustprogress"}
